(dp1
S'output'
p2
S''
sS'layer'
p3
S'/home/opedge/workspace/web2py/applications/shortestpath/controllers/app.py'
p4
sS'code'
p5
S'\nMIN_VERTEX_COUNT = 10\nMAX_VERTEX_COUNT = 101\nCELL_PREFIX = \'cell\'\nCELL_SEP = \'_\'\n\ndef index():\n    size_onchange = "ajax(\'" + URL(r=request, f=\'drawTable\') + "\',[\'size\'],\'graph_table\');"\n    size = SELECT(_name=\'size\', _value=\'10\', value=\'10\', _id=\'size\', _class=\'integer\',\n                  requires=IS_INT_IN_RANGE(MIN_VERTEX_COUNT, MAX_VERTEX_COUNT),\n                  _onchange=size_onchange, *range(MIN_VERTEX_COUNT, MAX_VERTEX_COUNT, 1))\n\n    oriented = SELECT(True, False, _name=\'oriented\', _id=\'oriented\',\n                      requires=IS_IN_SET([True, False]))\n\n    connectivity = INPUT(_type=\'text\', _name=\'connectivity\', _id=\'connectivity\',\n                         _size=\'2\', requires=IS_FLOAT_IN_RANGE(0, 1), value=\'0.5\')\n\n    fill_onclick = "ajax(\'" + URL(r=request, f=\'drawFilledTable\') + \\\n                    "\',[\'oriented\',\'connectivity\',\'size\'],\'graph_table\');"\n    fill_button = INPUT(_type=\'button\', _value=\'Fill graph\', _onclick=fill_onclick)\n\n    form = FORM(TABLE(TR(\'Size\', size),\n                      TR(\'Cost\', DIV(makeTable(), _id=\'graph_table\')),\n                      TR(\'Oriented\', oriented),\n                      TR(\'Connectivity [0,1]\', connectivity),\n                      TR(\'\', fill_button),\n                      TR(\'\', INPUT(_type=\'submit\', _value=\'Submit\'))))\n\n    if form.accepts(request.vars, session):\n        graph = makeGraphDictFromVars(int(request.vars.size), request.vars)\n        session.vars.graph = graph\n        session.vars.size = int(request.vars.size)\n        redirect(URL(r=request, f=\'options\'))\n\n    return dict(form=form)\n\ndef options():\n    from gluon.sqlhtml import form_factory\n    start_vertex = SQLField(\'start_vertex\', \'integer\', default=0,\n                            requires=IS_IN_SET(range(0, session.vars.size)))\n    stop_vertex = SQLField(\'stop_vertex\', \'integer\', default=session.vars.size - 1,\n                           requires=IS_IN_SET(range(0, session.vars.size)))\n    init_pop_length = SQLField(\'init_population_length\', length=10 , \'integer\', default=1000,\n                               requires=IS_INT_IN_RANGE(-10 ** 10, 10 ** 10))\n    form = form_factory(start_vertex,\n                        stop_vertex,\n                        init_pop_length)\n    return dict(form=form)\n\ndef drawFilledTable():\n    try:\n        numVertex = int(request.vars.size)\n        connectivity = float(request.vars.connectivity)\n        oriented = eval(request.vars.oriented)\n        return makeTable(fill=True, numVertex=numVertex,\n                         connectivity=connectivity, oriented=oriented).xml()\n    except ValueError:\n        return makeTable().xml()\n\ndef makeGraphDictFromVars(size, vars):\n    gd = {}\n    for i in range(size):\n        gd[i] = {}\n        for k in range(size):\n            value = vars[CELL_PREFIX + CELL_SEP + str(i) + CELL_SEP + str(k)]\n            gd[i][k] = int(value) if value != \'\' else float(\'inf\')\n    return gd\n\ndef makeTable(fill=False, numVertex=10, connectivity=0.5, oriented=False, maxLength=100):\n    from applications.shortestpath.modules.shortestpath.graph import Graph, generateRandomGraph\n    graph = generateRandomGraph(numVertex, connectivity=connectivity,\n                                maxLength=maxLength, oriented=oriented) \\\n            if fill else None\n    trs = [TR(\'\', *[x for x in range(numVertex)])]\n    for i in range(numVertex):\n        tds = []\n        for k in range(numVertex):\n            v = \'\'\n            if fill:\n                v = graph[i][k] if graph[i][k] != float(\'inf\') else \'\'\n            tds.append(INPUT(_type=\'text\', _class=\'integer\',\n                             _name=CELL_PREFIX + CELL_SEP + str(i) + CELL_SEP + str(k), _size=\'1\',\n                             requires=IS_NULL_OR(IS_INT_IN_RANGE(-10 ** 10, 10 ** 10)),\n                             value=v))\n        trs.append(TR(i, *tds))\n    return TABLE(*trs)\n\ndef drawTable():\n    return makeTable(numVertex=int(request.vars.size)).xml()\n\n\nresponse._vars=response._caller(options)\n'
p6
sS'traceback'
p7
S'Traceback (most recent call last):\n  File "/home/opedge/workspace/web2py/gluon/restricted.py", line 97, in restricted\n    ccode = compile(code.replace(\'\\r\\n\', \'\\n\'), layer, \'exec\')\n  File "/home/opedge/workspace/web2py/applications/shortestpath/controllers/app.py", line 44\n    init_pop_length = SQLField(\'init_population_length\', length=10 , \'integer\', default=1000,\nSyntaxError: non-keyword arg after keyword arg\n'
p8
s.